target datalayout = "e-m:e-p270:32:32-p271:32:32-p272:64:64-i64:64-i128:128-f80:128-n8:16:32:64-S128"
target triple = "x86_64-pc-linux-gnu"

%struct.Rectangle = type { float, float, float, float }
%struct.Vector2 = type { float, float }

; Function Attrs: nounwind uwtable
define zeroext i1 @CheckCollisionCircleRec(<2 x float> %0, float noundef %1, <2 x float> %2, <2 x float> %3) #0 {
  %5 = alloca i1, align 1
  %6 = alloca %struct.Vector2, align 4
  %7 = alloca %struct.Rectangle, align 4
  %8 = alloca float, align 4
  %9 = alloca i8, align 1
  %10 = alloca float, align 4
  %11 = alloca float, align 4
  %12 = alloca float, align 4
  %13 = alloca float, align 4
  %14 = alloca i32, align 4
  %15 = alloca float, align 4
  store <2 x float> %0, ptr %6, align 4
  %16 = getelementptr inbounds nuw { <2 x float>, <2 x float> }, ptr %7, i32 0, i32 0
  store <2 x float> %2, ptr %16, align 4
  %17 = getelementptr inbounds nuw { <2 x float>, <2 x float> }, ptr %7, i32 0, i32 1
  store <2 x float> %3, ptr %17, align 4
  store float %1, ptr %8, align 4
  call void @llvm.lifetime.start.p0(i64 1, ptr %9) #8
  store i8 0, ptr %9, align 1
  call void @llvm.lifetime.start.p0(i64 4, ptr %10) #8
  %18 = getelementptr inbounds nuw %struct.Rectangle, ptr %7, i32 0, i32 0
  %19 = load float, ptr %18, align 4
  %20 = getelementptr inbounds nuw %struct.Rectangle, ptr %7, i32 0, i32 2
  %21 = load float, ptr %20, align 4
  %22 = fdiv float %21, 2.000000e+00
  %23 = fadd float %19, %22
  store float %23, ptr %10, align 4
  call void @llvm.lifetime.start.p0(i64 4, ptr %11) #8
  %24 = getelementptr inbounds nuw %struct.Rectangle, ptr %7, i32 0, i32 1
  %25 = load float, ptr %24, align 4
  %26 = getelementptr inbounds nuw %struct.Rectangle, ptr %7, i32 0, i32 3
  %27 = load float, ptr %26, align 4
  %28 = fdiv float %27, 2.000000e+00
  %29 = fadd float %25, %28
  store float %29, ptr %11, align 4
  call void @llvm.lifetime.start.p0(i64 4, ptr %12) #8
  %30 = getelementptr inbounds nuw %struct.Vector2, ptr %6, i32 0, i32 0
  %31 = load float, ptr %30, align 4
  %32 = load float, ptr %10, align 4
  %33 = fsub float %31, %32
  %34 = call float @llvm.fabs.f32(float %33)
  store float %34, ptr %12, align 4
  call void @llvm.lifetime.start.p0(i64 4, ptr %13) #8
  %35 = getelementptr inbounds nuw %struct.Vector2, ptr %6, i32 0, i32 1
  %36 = load float, ptr %35, align 4
  %37 = load float, ptr %11, align 4
  %38 = fsub float %36, %37
  %39 = call float @llvm.fabs.f32(float %38)
  store float %39, ptr %13, align 4
  %40 = load float, ptr %12, align 4
  %41 = getelementptr inbounds nuw %struct.Rectangle, ptr %7, i32 0, i32 2
  %42 = load float, ptr %41, align 4
  %43 = fdiv float %42, 2.000000e+00
  %44 = load float, ptr %8, align 4
  %45 = fadd float %43, %44
  %46 = fcmp ogt float %40, %45
  br i1 %46, label %47, label %48

47:                                               ; preds = %4
  store i1 false, ptr %5, align 1
  store i32 1, ptr %14, align 4
  br label %102

48:                                               ; preds = %4
  %49 = load float, ptr %13, align 4
  %50 = getelementptr inbounds nuw %struct.Rectangle, ptr %7, i32 0, i32 3
  %51 = load float, ptr %50, align 4
  %52 = fdiv float %51, 2.000000e+00
  %53 = load float, ptr %8, align 4
  %54 = fadd float %52, %53
  %55 = fcmp ogt float %49, %54
  br i1 %55, label %56, label %57

56:                                               ; preds = %48
  store i1 false, ptr %5, align 1
  store i32 1, ptr %14, align 4
  br label %102

57:                                               ; preds = %48
  %58 = load float, ptr %12, align 4
  %59 = getelementptr inbounds nuw %struct.Rectangle, ptr %7, i32 0, i32 2
  %60 = load float, ptr %59, align 4
  %61 = fdiv float %60, 2.000000e+00
  %62 = fcmp ole float %58, %61
  br i1 %62, label %63, label %64

63:                                               ; preds = %57
  store i1 true, ptr %5, align 1
  store i32 1, ptr %14, align 4
  br label %102

64:                                               ; preds = %57
  %65 = load float, ptr %13, align 4
  %66 = getelementptr inbounds nuw %struct.Rectangle, ptr %7, i32 0, i32 3
  %67 = load float, ptr %66, align 4
  %68 = fdiv float %67, 2.000000e+00
  %69 = fcmp ole float %65, %68
  br i1 %69, label %70, label %71

70:                                               ; preds = %64
  store i1 true, ptr %5, align 1
  store i32 1, ptr %14, align 4
  br label %102

71:                                               ; preds = %64
  call void @llvm.lifetime.start.p0(i64 4, ptr %15) #8
  %72 = load float, ptr %12, align 4
  %73 = getelementptr inbounds nuw %struct.Rectangle, ptr %7, i32 0, i32 2
  %74 = load float, ptr %73, align 4
  %75 = fdiv float %74, 2.000000e+00
  %76 = fsub float %72, %75
  %77 = load float, ptr %12, align 4
  %78 = getelementptr inbounds nuw %struct.Rectangle, ptr %7, i32 0, i32 2
  %79 = load float, ptr %78, align 4
  %80 = fdiv float %79, 2.000000e+00
  %81 = fsub float %77, %80
  %82 = load float, ptr %13, align 4
  %83 = getelementptr inbounds nuw %struct.Rectangle, ptr %7, i32 0, i32 3
  %84 = load float, ptr %83, align 4
  %85 = fdiv float %84, 2.000000e+00
  %86 = fsub float %82, %85
  %87 = load float, ptr %13, align 4
  %88 = getelementptr inbounds nuw %struct.Rectangle, ptr %7, i32 0, i32 3
  %89 = load float, ptr %88, align 4
  %90 = fdiv float %89, 2.000000e+00
  %91 = fsub float %87, %90
  %92 = fmul float %86, %91
  %93 = call float @llvm.fmuladd.f32(float %76, float %81, float %92)
  store float %93, ptr %15, align 4
  %94 = load float, ptr %15, align 4
  %95 = load float, ptr %8, align 4
  %96 = load float, ptr %8, align 4
  %97 = fmul float %95, %96
  %98 = fcmp ole float %94, %97
  %99 = zext i1 %98 to i8
  store i8 %99, ptr %9, align 1
  %100 = load i8, ptr %9, align 1, !range !3, !noundef !4
  %101 = trunc i8 %100 to i1
  store i1 %101, ptr %5, align 1
  store i32 1, ptr %14, align 4
  call void @llvm.lifetime.end.p0(i64 4, ptr %15) #8
  br label %102

102:                                              ; preds = %71, %70, %63, %56, %47
  call void @llvm.lifetime.end.p0(i64 4, ptr %13) #8
  call void @llvm.lifetime.end.p0(i64 4, ptr %12) #8
  call void @llvm.lifetime.end.p0(i64 4, ptr %11) #8
  call void @llvm.lifetime.end.p0(i64 4, ptr %10) #8
  call void @llvm.lifetime.end.p0(i64 1, ptr %9) #8
  %103 = load i1, ptr %5, align 1
  ret i1 %103
}