; Function Attrs: mustprogress nofree norecurse nosync nounwind willreturn memory(none) uwtable
define zeroext i1 @CheckCollisionCircleRec(<2 x float> %0, float noundef %1, <2 x float> %2, <2 x float> %3) local_unnamed_addr #11 {
  %.sroa.0.0.vec.extract = extractelement <2 x float> %2, i64 0
  %.sroa.3.8.vec.extract = extractelement <2 x float> %3, i64 0
  %5 = fmul float %.sroa.3.8.vec.extract, 5.000000e-01
  %6 = fadd float %.sroa.0.0.vec.extract, %5
  %.sroa.0.4.vec.extract = extractelement <2 x float> %2, i64 1
  %.sroa.3.12.vec.extract = extractelement <2 x float> %3, i64 1
  %7 = fmul float %.sroa.3.12.vec.extract, 5.000000e-01
  %8 = fadd float %.sroa.0.4.vec.extract, %7
  %.sroa.031.0.vec.extract = extractelement <2 x float> %0, i64 0
  %9 = fsub float %.sroa.031.0.vec.extract, %6
  %10 = tail call float @llvm.fabs.f32(float %9)
  %.sroa.031.4.vec.extract = extractelement <2 x float> %0, i64 1
  %11 = fsub float %.sroa.031.4.vec.extract, %8
  %12 = tail call float @llvm.fabs.f32(float %11)
  %13 = fadd float %1, %5
  %14 = fcmp ogt float %10, %13
  %15 = fadd float %1, %7
  %16 = fcmp ogt float %12, %15
  %or.cond = select i1 %14, i1 true, i1 %16
  br i1 %or.cond, label %27, label %17

17:                                               ; preds = %4
  %18 = fcmp ugt float %10, %5
  %19 = fcmp ugt float %12, %7
  %or.cond38 = select i1 %18, i1 %19, i1 false
  br i1 %or.cond38, label %20, label %27

20:                                               ; preds = %17
  %21 = fsub float %10, %5
  %22 = fsub float %12, %7
  %23 = fmul float %22, %22
  %24 = tail call float @llvm.fmuladd.f32(float %21, float %21, float %23)
  %25 = fmul float %1, %1
  %26 = fcmp ole float %24, %25
  br label %27

27:                                               ; preds = %17, %4, %20
  %.0 = phi i1 [ %26, %20 ], [ false, %4 ], [ true, %17 ]
  ret i1 %.0
}